
binary_3:     file format elf64-x86-64


Disassembly of section .text:

0000000009596000 <.text>:
 9596000:	31 ed                	xor    %ebp,%ebp
 9596002:	49 89 d1             	mov    %rdx,%r9
 9596005:	5e                   	pop    %rsi
 9596006:	48 89 e2             	mov    %rsp,%rdx
 9596009:	48 83 e4 f0          	and    $0xfffffffffffffff0,%rsp
 959600d:	50                   	push   %rax
 959600e:	54                   	push   %rsp
 959600f:	49 c7 c0 60 6e 59 09 	mov    $0x9596e60,%r8
 9596016:	48 c7 c1 d0 6d 59 09 	mov    $0x9596dd0,%rcx
 959601d:	48 c7 c7 1e 6a 59 09 	mov    $0x9596a1e,%rdi
 9596024:	e8 07 a7 e6 f6       	callq  400730 <__libc_start_main@plt>
 9596029:	f4                   	hlt    
 959602a:	90                   	nop
 959602b:	90                   	nop
 959602c:	48 83 ec 08          	sub    $0x8,%rsp
 9596030:	48 8b 05 a9 1f 20 00 	mov    0x201fa9(%rip),%rax        # 9797fe0 <mprotect@plt+0x9397840>
 9596037:	48 85 c0             	test   %rax,%rax
 959603a:	74 02                	je     959603e <mprotect@plt+0x919589e>
 959603c:	ff d0                	callq  *%rax
 959603e:	48 83 c4 08          	add    $0x8,%rsp
 9596042:	c3                   	retq   
 9596043:	90                   	nop
 9596044:	90                   	nop
 9596045:	90                   	nop
 9596046:	90                   	nop
 9596047:	90                   	nop
 9596048:	90                   	nop
 9596049:	90                   	nop
 959604a:	90                   	nop
 959604b:	90                   	nop
 959604c:	90                   	nop
 959604d:	90                   	nop
 959604e:	90                   	nop
 959604f:	90                   	nop
 9596050:	55                   	push   %rbp
 9596051:	48 89 e5             	mov    %rsp,%rbp
 9596054:	53                   	push   %rbx
 9596055:	48 83 ec 08          	sub    $0x8,%rsp
 9596059:	80 3d 20 20 20 00 00 	cmpb   $0x0,0x202020(%rip)        # 9798080 <mprotect@plt+0x93978e0>
 9596060:	75 4b                	jne    95960ad <mprotect@plt+0x919590d>
 9596062:	bb 40 7e 79 09       	mov    $0x9797e40,%ebx
 9596067:	48 8b 05 1a 20 20 00 	mov    0x20201a(%rip),%rax        # 9798088 <mprotect@plt+0x93978e8>
 959606e:	48 81 eb 38 7e 79 09 	sub    $0x9797e38,%rbx
 9596075:	48 c1 fb 03          	sar    $0x3,%rbx
 9596079:	48 83 eb 01          	sub    $0x1,%rbx
 959607d:	48 39 d8             	cmp    %rbx,%rax
 9596080:	73 24                	jae    95960a6 <mprotect@plt+0x9195906>
 9596082:	66 0f 1f 44 00 00    	nopw   0x0(%rax,%rax,1)
 9596088:	48 83 c0 01          	add    $0x1,%rax
 959608c:	48 89 05 f5 1f 20 00 	mov    %rax,0x201ff5(%rip)        # 9798088 <mprotect@plt+0x93978e8>
 9596093:	ff 14 c5 38 7e 79 09 	callq  *0x9797e38(,%rax,8)
 959609a:	48 8b 05 e7 1f 20 00 	mov    0x201fe7(%rip),%rax        # 9798088 <mprotect@plt+0x93978e8>
 95960a1:	48 39 d8             	cmp    %rbx,%rax
 95960a4:	72 e2                	jb     9596088 <mprotect@plt+0x91958e8>
 95960a6:	c6 05 d3 1f 20 00 01 	movb   $0x1,0x201fd3(%rip)        # 9798080 <mprotect@plt+0x93978e0>
 95960ad:	48 83 c4 08          	add    $0x8,%rsp
 95960b1:	5b                   	pop    %rbx
 95960b2:	5d                   	pop    %rbp
 95960b3:	c3                   	retq   
 95960b4:	66 66 66 2e 0f 1f 84 	data16 data16 nopw %cs:0x0(%rax,%rax,1)
 95960bb:	00 00 00 00 00 
 95960c0:	48 83 3d 80 1d 20 00 	cmpq   $0x0,0x201d80(%rip)        # 9797e48 <mprotect@plt+0x93976a8>
 95960c7:	00 
 95960c8:	55                   	push   %rbp
 95960c9:	48 89 e5             	mov    %rsp,%rbp
 95960cc:	74 12                	je     95960e0 <mprotect@plt+0x9195940>
 95960ce:	b8 00 00 00 00       	mov    $0x0,%eax
 95960d3:	48 85 c0             	test   %rax,%rax
 95960d6:	74 08                	je     95960e0 <mprotect@plt+0x9195940>
 95960d8:	5d                   	pop    %rbp
 95960d9:	bf 48 7e 79 09       	mov    $0x9797e48,%edi
 95960de:	ff e0                	jmpq   *%rax
 95960e0:	5d                   	pop    %rbp
 95960e1:	c3                   	retq   
 95960e2:	90                   	nop
 95960e3:	90                   	nop
 95960e4:	55                   	push   %rbp
 95960e5:	48 89 e5             	mov    %rsp,%rbp
 95960e8:	ba 00 00 00 00       	mov    $0x0,%edx
 95960ed:	be 00 00 00 00       	mov    $0x0,%esi
 95960f2:	bf 00 00 00 00       	mov    $0x0,%edi
 95960f7:	e8 a4 a6 e6 f6       	callq  4007a0 <mprotect@plt>
 95960fc:	5d                   	pop    %rbp
 95960fd:	c3                   	retq   
 95960fe:	55                   	push   %rbp
 95960ff:	48 89 e5             	mov    %rsp,%rbp
 9596102:	41 b9 00 00 00 00    	mov    $0x0,%r9d
 9596108:	41 b8 00 00 00 00    	mov    $0x0,%r8d
 959610e:	b9 00 00 00 00       	mov    $0x0,%ecx
 9596113:	ba 00 00 00 00       	mov    $0x0,%edx
 9596118:	be 00 00 00 00       	mov    $0x0,%esi
 959611d:	bf 00 00 00 00       	mov    $0x0,%edi
 9596122:	e8 d9 a5 e6 f6       	callq  400700 <mmap@plt>
 9596127:	5d                   	pop    %rbp
 9596128:	c3                   	retq   
 9596129:	55                   	push   %rbp
 959612a:	48 89 e5             	mov    %rsp,%rbp
 959612d:	b8 00 00 00 00       	mov    $0x0,%eax
 9596132:	e8 b9 a5 e6 f6       	callq  4006f0 <getuid@plt>
 9596137:	5d                   	pop    %rbp
 9596138:	c3                   	retq   
 9596139:	55                   	push   %rbp
 959613a:	48 89 e5             	mov    %rsp,%rbp
 959613d:	b8 00 00 00 00       	mov    $0x0,%eax
 9596142:	e8 d9 a5 e6 f6       	callq  400720 <geteuid@plt>
 9596147:	5d                   	pop    %rbp
 9596148:	c3                   	retq   
 9596149:	55                   	push   %rbp
 959614a:	48 89 e5             	mov    %rsp,%rbp
 959614d:	5d                   	pop    %rbp
 959614e:	c3                   	retq   
 959614f:	55                   	push   %rbp
 9596150:	48 89 e5             	mov    %rsp,%rbp
 9596153:	bf 00 00 00 00       	mov    $0x0,%edi
 9596158:	b8 00 00 00 00       	mov    $0x0,%eax
 959615d:	e8 fe a5 e6 f6       	callq  400760 <time@plt>
 9596162:	5d                   	pop    %rbp
 9596163:	c3                   	retq   
 9596164:	55                   	push   %rbp
 9596165:	48 89 e5             	mov    %rsp,%rbp
 9596168:	bf 0a 00 00 00       	mov    $0xa,%edi
 959616d:	b8 00 00 00 00       	mov    $0x0,%eax
 9596172:	e8 99 a5 e6 f6       	callq  400710 <dup@plt>
 9596177:	5d                   	pop    %rbp
 9596178:	c3                   	retq   
 9596179:	55                   	push   %rbp
 959617a:	48 89 e5             	mov    %rsp,%rbp
 959617d:	ba 09 00 00 00       	mov    $0x9,%edx
 9596182:	be 09 00 00 00       	mov    $0x9,%esi
 9596187:	bf 09 00 00 00       	mov    $0x9,%edi
 959618c:	b8 00 00 00 00       	mov    $0x0,%eax
 9596191:	e8 fa a5 e6 f6       	callq  400790 <setreuid@plt>
 9596196:	5d                   	pop    %rbp
 9596197:	c3                   	retq   
 9596198:	55                   	push   %rbp
 9596199:	48 89 e5             	mov    %rsp,%rbp
 959619c:	bf 00 00 00 00       	mov    $0x0,%edi
 95961a1:	b8 00 00 00 00       	mov    $0x0,%eax
 95961a6:	e8 c5 a5 e6 f6       	callq  400770 <nice@plt>
 95961ab:	5d                   	pop    %rbp
 95961ac:	c3                   	retq   
 95961ad:	55                   	push   %rbp
 95961ae:	48 89 e5             	mov    %rsp,%rbp
 95961b1:	48 83 ec 20          	sub    $0x20,%rsp
 95961b5:	8b 05 b5 32 20 00    	mov    0x2032b5(%rip),%eax        # 9799470 <mprotect@plt+0x9398cd0>
 95961bb:	83 e8 30             	sub    $0x30,%eax
 95961be:	48 63 d0             	movslq %eax,%rdx
 95961c1:	b9 d0 97 79 09       	mov    $0x97997d0,%ecx
 95961c6:	48 8d 45 e0          	lea    -0x20(%rbp),%rax
 95961ca:	48 89 ce             	mov    %rcx,%rsi
 95961cd:	48 89 c7             	mov    %rax,%rdi
 95961d0:	e8 7b a5 e6 f6       	callq  400750 <memcpy@plt>
 95961d5:	c9                   	leaveq 
 95961d6:	c3                   	retq   
 95961d7:	55                   	push   %rbp
 95961d8:	48 89 e5             	mov    %rsp,%rbp
 95961db:	48 83 ec 10          	sub    $0x10,%rsp
 95961df:	89 f1                	mov    %esi,%ecx
 95961e1:	89 d0                	mov    %edx,%eax
 95961e3:	40 88 7d fc          	mov    %dil,-0x4(%rbp)
 95961e7:	88 4d f8             	mov    %cl,-0x8(%rbp)
 95961ea:	88 45 f4             	mov    %al,-0xc(%rbp)
 95961ed:	80 7d fc fb          	cmpb   $0xfb,-0x4(%rbp)
 95961f1:	75 32                	jne    9596225 <mprotect@plt+0x9195a85>
 95961f3:	0f b6 55 fc          	movzbl -0x4(%rbp),%edx
 95961f7:	89 d0                	mov    %edx,%eax
 95961f9:	c1 e0 04             	shl    $0x4,%eax
 95961fc:	28 d0                	sub    %dl,%al
 95961fe:	2a 45 f8             	sub    -0x8(%rbp),%al
 9596201:	3c 04                	cmp    $0x4,%al
 9596203:	75 20                	jne    9596225 <mprotect@plt+0x9195a85>
 9596205:	0f b6 45 fc          	movzbl -0x4(%rbp),%eax
 9596209:	ba 23 00 00 00       	mov    $0x23,%edx
 959620e:	0f af c2             	imul   %edx,%eax
 9596211:	02 45 f8             	add    -0x8(%rbp),%al
 9596214:	2a 45 f4             	sub    -0xc(%rbp),%al
 9596217:	3c 63                	cmp    $0x63,%al
 9596219:	75 0a                	jne    9596225 <mprotect@plt+0x9195a85>
 959621b:	b8 00 00 00 00       	mov    $0x0,%eax
 9596220:	e8 88 ff ff ff       	callq  95961ad <mprotect@plt+0x9195a0d>
 9596225:	c9                   	leaveq 
 9596226:	c3                   	retq   
 9596227:	55                   	push   %rbp
 9596228:	48 89 e5             	mov    %rsp,%rbp
 959622b:	48 83 ec 10          	sub    $0x10,%rsp
 959622f:	89 f1                	mov    %esi,%ecx
 9596231:	89 d0                	mov    %edx,%eax
 9596233:	40 88 7d fc          	mov    %dil,-0x4(%rbp)
 9596237:	88 4d f8             	mov    %cl,-0x8(%rbp)
 959623a:	88 45 f4             	mov    %al,-0xc(%rbp)
 959623d:	80 7d fc c3          	cmpb   $0xc3,-0x4(%rbp)
 9596241:	75 61                	jne    95962a4 <mprotect@plt+0x9195b04>
 9596243:	0f b6 45 fc          	movzbl -0x4(%rbp),%eax
 9596247:	c1 e0 02             	shl    $0x2,%eax
 959624a:	89 c2                	mov    %eax,%edx
 959624c:	c1 e2 04             	shl    $0x4,%edx
 959624f:	89 d1                	mov    %edx,%ecx
 9596251:	28 c1                	sub    %al,%cl
 9596253:	89 c8                	mov    %ecx,%eax
 9596255:	2a 45 f8             	sub    -0x8(%rbp),%al
 9596258:	3c 2e                	cmp    $0x2e,%al
 959625a:	75 48                	jne    95962a4 <mprotect@plt+0x9195b04>
 959625c:	0f b6 55 fc          	movzbl -0x4(%rbp),%edx
 9596260:	89 d0                	mov    %edx,%eax
 9596262:	c1 e0 06             	shl    $0x6,%eax
 9596265:	89 c1                	mov    %eax,%ecx
 9596267:	28 d1                	sub    %dl,%cl
 9596269:	0f b6 55 f8          	movzbl -0x8(%rbp),%edx
 959626d:	89 d0                	mov    %edx,%eax
 959626f:	c1 e0 05             	shl    $0x5,%eax
 9596272:	28 d0                	sub    %dl,%al
 9596274:	01 c8                	add    %ecx,%eax
 9596276:	2a 45 f4             	sub    -0xc(%rbp),%al
 9596279:	3c 37                	cmp    $0x37,%al
 959627b:	75 27                	jne    95962a4 <mprotect@plt+0x9195b04>
 959627d:	0f b6 05 4b 35 20 00 	movzbl 0x20354b(%rip),%eax        # 97997cf <mprotect@plt+0x939902f>
 9596284:	0f b6 d0             	movzbl %al,%edx
 9596287:	0f b6 05 40 35 20 00 	movzbl 0x203540(%rip),%eax        # 97997ce <mprotect@plt+0x939902e>
 959628e:	0f b6 c8             	movzbl %al,%ecx
 9596291:	0f b6 05 35 35 20 00 	movzbl 0x203535(%rip),%eax        # 97997cd <mprotect@plt+0x939902d>
 9596298:	0f b6 c0             	movzbl %al,%eax
 959629b:	89 ce                	mov    %ecx,%esi
 959629d:	89 c7                	mov    %eax,%edi
 959629f:	e8 33 ff ff ff       	callq  95961d7 <mprotect@plt+0x9195a37>
 95962a4:	c9                   	leaveq 
 95962a5:	c3                   	retq   
 95962a6:	55                   	push   %rbp
 95962a7:	48 89 e5             	mov    %rsp,%rbp
 95962aa:	48 83 ec 10          	sub    $0x10,%rsp
 95962ae:	89 f1                	mov    %esi,%ecx
 95962b0:	89 d0                	mov    %edx,%eax
 95962b2:	40 88 7d fc          	mov    %dil,-0x4(%rbp)
 95962b6:	88 4d f8             	mov    %cl,-0x8(%rbp)
 95962b9:	88 45 f4             	mov    %al,-0xc(%rbp)
 95962bc:	80 7d fc fb          	cmpb   $0xfb,-0x4(%rbp)
 95962c0:	75 58                	jne    959631a <mprotect@plt+0x9195b7a>
 95962c2:	0f b6 45 fc          	movzbl -0x4(%rbp),%eax
 95962c6:	ba 23 00 00 00       	mov    $0x23,%edx
 95962cb:	0f af c2             	imul   %edx,%eax
 95962ce:	2a 45 f8             	sub    -0x8(%rbp),%al
 95962d1:	3c 57                	cmp    $0x57,%al
 95962d3:	75 45                	jne    959631a <mprotect@plt+0x9195b7a>
 95962d5:	0f b6 45 fc          	movzbl -0x4(%rbp),%eax
 95962d9:	89 c1                	mov    %eax,%ecx
 95962db:	c1 e1 04             	shl    $0x4,%ecx
 95962de:	0f b6 45 f8          	movzbl -0x8(%rbp),%eax
 95962e2:	ba 34 00 00 00       	mov    $0x34,%edx
 95962e7:	0f af c2             	imul   %edx,%eax
 95962ea:	01 c8                	add    %ecx,%eax
 95962ec:	2a 45 f4             	sub    -0xc(%rbp),%al
 95962ef:	3c 50                	cmp    $0x50,%al
 95962f1:	75 27                	jne    959631a <mprotect@plt+0x9195b7a>
 95962f3:	0f b6 05 d2 34 20 00 	movzbl 0x2034d2(%rip),%eax        # 97997cc <mprotect@plt+0x939902c>
 95962fa:	0f b6 d0             	movzbl %al,%edx
 95962fd:	0f b6 05 c7 34 20 00 	movzbl 0x2034c7(%rip),%eax        # 97997cb <mprotect@plt+0x939902b>
 9596304:	0f b6 c8             	movzbl %al,%ecx
 9596307:	0f b6 05 bc 34 20 00 	movzbl 0x2034bc(%rip),%eax        # 97997ca <mprotect@plt+0x939902a>
 959630e:	0f b6 c0             	movzbl %al,%eax
 9596311:	89 ce                	mov    %ecx,%esi
 9596313:	89 c7                	mov    %eax,%edi
 9596315:	e8 0d ff ff ff       	callq  9596227 <mprotect@plt+0x9195a87>
 959631a:	c9                   	leaveq 
 959631b:	c3                   	retq   
 959631c:	55                   	push   %rbp
 959631d:	48 89 e5             	mov    %rsp,%rbp
 9596320:	48 83 ec 10          	sub    $0x10,%rsp
 9596324:	89 f1                	mov    %esi,%ecx
 9596326:	89 d0                	mov    %edx,%eax
 9596328:	40 88 7d fc          	mov    %dil,-0x4(%rbp)
 959632c:	88 4d f8             	mov    %cl,-0x8(%rbp)
 959632f:	88 45 f4             	mov    %al,-0xc(%rbp)
 9596332:	80 7d fc 01          	cmpb   $0x1,-0x4(%rbp)
 9596336:	75 5e                	jne    9596396 <mprotect@plt+0x9195bf6>
 9596338:	0f b6 55 fc          	movzbl -0x4(%rbp),%edx
 959633c:	89 d0                	mov    %edx,%eax
 959633e:	01 c0                	add    %eax,%eax
 9596340:	01 d0                	add    %edx,%eax
 9596342:	2a 45 f8             	sub    -0x8(%rbp),%al
 9596345:	3c 25                	cmp    $0x25,%al
 9596347:	75 4d                	jne    9596396 <mprotect@plt+0x9195bf6>
 9596349:	0f b6 55 fc          	movzbl -0x4(%rbp),%edx
 959634d:	89 d0                	mov    %edx,%eax
 959634f:	c1 e0 03             	shl    $0x3,%eax
 9596352:	01 d0                	add    %edx,%eax
 9596354:	c1 e0 02             	shl    $0x2,%eax
 9596357:	8d 0c 10             	lea    (%rax,%rdx,1),%ecx
 959635a:	0f b6 45 f8          	movzbl -0x8(%rbp),%eax
 959635e:	ba 55 00 00 00       	mov    $0x55,%edx
 9596363:	0f af c2             	imul   %edx,%eax
 9596366:	01 c8                	add    %ecx,%eax
 9596368:	2a 45 f4             	sub    -0xc(%rbp),%al
 959636b:	3c 2d                	cmp    $0x2d,%al
 959636d:	75 27                	jne    9596396 <mprotect@plt+0x9195bf6>
 959636f:	0f b6 05 53 34 20 00 	movzbl 0x203453(%rip),%eax        # 97997c9 <mprotect@plt+0x9399029>
 9596376:	0f b6 d0             	movzbl %al,%edx
 9596379:	0f b6 05 48 34 20 00 	movzbl 0x203448(%rip),%eax        # 97997c8 <mprotect@plt+0x9399028>
 9596380:	0f b6 c8             	movzbl %al,%ecx
 9596383:	0f b6 05 3d 34 20 00 	movzbl 0x20343d(%rip),%eax        # 97997c7 <mprotect@plt+0x9399027>
 959638a:	0f b6 c0             	movzbl %al,%eax
 959638d:	89 ce                	mov    %ecx,%esi
 959638f:	89 c7                	mov    %eax,%edi
 9596391:	e8 10 ff ff ff       	callq  95962a6 <mprotect@plt+0x9195b06>
 9596396:	c9                   	leaveq 
 9596397:	c3                   	retq   
 9596398:	55                   	push   %rbp
 9596399:	48 89 e5             	mov    %rsp,%rbp
 959639c:	48 83 ec 10          	sub    $0x10,%rsp
 95963a0:	89 f1                	mov    %esi,%ecx
 95963a2:	89 d0                	mov    %edx,%eax
 95963a4:	40 88 7d fc          	mov    %dil,-0x4(%rbp)
 95963a8:	88 4d f8             	mov    %cl,-0x8(%rbp)
 95963ab:	88 45 f4             	mov    %al,-0xc(%rbp)
 95963ae:	80 7d fc c7          	cmpb   $0xc7,-0x4(%rbp)
 95963b2:	75 60                	jne    9596414 <mprotect@plt+0x9195c74>
 95963b4:	0f b6 45 fc          	movzbl -0x4(%rbp),%eax
 95963b8:	ba 1d 00 00 00       	mov    $0x1d,%edx
 95963bd:	0f af c2             	imul   %edx,%eax
 95963c0:	2a 45 f8             	sub    -0x8(%rbp),%al
 95963c3:	3c 05                	cmp    $0x5,%al
 95963c5:	75 4d                	jne    9596414 <mprotect@plt+0x9195c74>
 95963c7:	0f b6 55 fc          	movzbl -0x4(%rbp),%edx
 95963cb:	89 d0                	mov    %edx,%eax
 95963cd:	c1 e0 02             	shl    $0x2,%eax
 95963d0:	01 d0                	add    %edx,%eax
 95963d2:	01 c0                	add    %eax,%eax
 95963d4:	89 c1                	mov    %eax,%ecx
 95963d6:	0f b6 55 f8          	movzbl -0x8(%rbp),%edx
 95963da:	89 d0                	mov    %edx,%eax
 95963dc:	c1 e0 03             	shl    $0x3,%eax
 95963df:	01 d0                	add    %edx,%eax
 95963e1:	c1 e0 03             	shl    $0x3,%eax
 95963e4:	01 c8                	add    %ecx,%eax
 95963e6:	2a 45 f4             	sub    -0xc(%rbp),%al
 95963e9:	3c 2f                	cmp    $0x2f,%al
 95963eb:	75 27                	jne    9596414 <mprotect@plt+0x9195c74>
 95963ed:	0f b6 05 d2 33 20 00 	movzbl 0x2033d2(%rip),%eax        # 97997c6 <mprotect@plt+0x9399026>
 95963f4:	0f b6 d0             	movzbl %al,%edx
 95963f7:	0f b6 05 c7 33 20 00 	movzbl 0x2033c7(%rip),%eax        # 97997c5 <mprotect@plt+0x9399025>
 95963fe:	0f b6 c8             	movzbl %al,%ecx
 9596401:	0f b6 05 bc 33 20 00 	movzbl 0x2033bc(%rip),%eax        # 97997c4 <mprotect@plt+0x9399024>
 9596408:	0f b6 c0             	movzbl %al,%eax
 959640b:	89 ce                	mov    %ecx,%esi
 959640d:	89 c7                	mov    %eax,%edi
 959640f:	e8 08 ff ff ff       	callq  959631c <mprotect@plt+0x9195b7c>
 9596414:	c9                   	leaveq 
 9596415:	c3                   	retq   
 9596416:	55                   	push   %rbp
 9596417:	48 89 e5             	mov    %rsp,%rbp
 959641a:	48 83 ec 10          	sub    $0x10,%rsp
 959641e:	89 f1                	mov    %esi,%ecx
 9596420:	89 d0                	mov    %edx,%eax
 9596422:	40 88 7d fc          	mov    %dil,-0x4(%rbp)
 9596426:	88 4d f8             	mov    %cl,-0x8(%rbp)
 9596429:	88 45 f4             	mov    %al,-0xc(%rbp)
 959642c:	80 7d fc 2b          	cmpb   $0x2b,-0x4(%rbp)
 9596430:	75 63                	jne    9596495 <mprotect@plt+0x9195cf5>
 9596432:	0f b6 45 f8          	movzbl -0x8(%rbp),%eax
 9596436:	0f b6 55 fc          	movzbl -0x4(%rbp),%edx
 959643a:	89 d1                	mov    %edx,%ecx
 959643c:	28 c1                	sub    %al,%cl
 959643e:	89 c8                	mov    %ecx,%eax
 9596440:	3c 4c                	cmp    $0x4c,%al
 9596442:	75 51                	jne    9596495 <mprotect@plt+0x9195cf5>
 9596444:	0f b6 45 fc          	movzbl -0x4(%rbp),%eax
 9596448:	88 45 f3             	mov    %al,-0xd(%rbp)
 959644b:	ba 57 00 00 00       	mov    $0x57,%edx
 9596450:	0f b6 45 f3          	movzbl -0xd(%rbp),%eax
 9596454:	0f af c2             	imul   %edx,%eax
 9596457:	89 c2                	mov    %eax,%edx
 9596459:	0f b6 45 f8          	movzbl -0x8(%rbp),%eax
 959645d:	b9 32 00 00 00       	mov    $0x32,%ecx
 9596462:	0f af c1             	imul   %ecx,%eax
 9596465:	01 d0                	add    %edx,%eax
 9596467:	2a 45 f4             	sub    -0xc(%rbp),%al
 959646a:	3c 1f                	cmp    $0x1f,%al
 959646c:	75 27                	jne    9596495 <mprotect@plt+0x9195cf5>
 959646e:	0f b6 05 4e 33 20 00 	movzbl 0x20334e(%rip),%eax        # 97997c3 <mprotect@plt+0x9399023>
 9596475:	0f b6 d0             	movzbl %al,%edx
 9596478:	0f b6 05 43 33 20 00 	movzbl 0x203343(%rip),%eax        # 97997c2 <mprotect@plt+0x9399022>
 959647f:	0f b6 c8             	movzbl %al,%ecx
 9596482:	0f b6 05 38 33 20 00 	movzbl 0x203338(%rip),%eax        # 97997c1 <mprotect@plt+0x9399021>
 9596489:	0f b6 c0             	movzbl %al,%eax
 959648c:	89 ce                	mov    %ecx,%esi
 959648e:	89 c7                	mov    %eax,%edi
 9596490:	e8 03 ff ff ff       	callq  9596398 <mprotect@plt+0x9195bf8>
 9596495:	c9                   	leaveq 
 9596496:	c3                   	retq   
 9596497:	55                   	push   %rbp
 9596498:	48 89 e5             	mov    %rsp,%rbp
 959649b:	48 83 ec 10          	sub    $0x10,%rsp
 959649f:	89 f1                	mov    %esi,%ecx
 95964a1:	89 d0                	mov    %edx,%eax
 95964a3:	40 88 7d fc          	mov    %dil,-0x4(%rbp)
 95964a7:	88 4d f8             	mov    %cl,-0x8(%rbp)
 95964aa:	88 45 f4             	mov    %al,-0xc(%rbp)
 95964ad:	80 7d fc 30          	cmpb   $0x30,-0x4(%rbp)
 95964b1:	75 63                	jne    9596516 <mprotect@plt+0x9195d76>
 95964b3:	0f b6 45 fc          	movzbl -0x4(%rbp),%eax
 95964b7:	ba 55 00 00 00       	mov    $0x55,%edx
 95964bc:	0f af c2             	imul   %edx,%eax
 95964bf:	2a 45 f8             	sub    -0x8(%rbp),%al
 95964c2:	3c 56                	cmp    $0x56,%al
 95964c4:	75 50                	jne    9596516 <mprotect@plt+0x9195d76>
 95964c6:	0f b6 55 fc          	movzbl -0x4(%rbp),%edx
 95964ca:	89 d0                	mov    %edx,%eax
 95964cc:	01 c0                	add    %eax,%eax
 95964ce:	01 d0                	add    %edx,%eax
 95964d0:	8d 14 c5 00 00 00 00 	lea    0x0(,%rax,8),%edx
 95964d7:	8d 0c 10             	lea    (%rax,%rdx,1),%ecx
 95964da:	0f b6 45 f8          	movzbl -0x8(%rbp),%eax
 95964de:	ba 34 00 00 00       	mov    $0x34,%edx
 95964e3:	0f af c2             	imul   %edx,%eax
 95964e6:	01 c8                	add    %ecx,%eax
 95964e8:	2a 45 f4             	sub    -0xc(%rbp),%al
 95964eb:	3c 24                	cmp    $0x24,%al
 95964ed:	75 27                	jne    9596516 <mprotect@plt+0x9195d76>
 95964ef:	0f b6 05 ca 32 20 00 	movzbl 0x2032ca(%rip),%eax        # 97997c0 <mprotect@plt+0x9399020>
 95964f6:	0f b6 d0             	movzbl %al,%edx
 95964f9:	0f b6 05 bf 32 20 00 	movzbl 0x2032bf(%rip),%eax        # 97997bf <mprotect@plt+0x939901f>
 9596500:	0f b6 c8             	movzbl %al,%ecx
 9596503:	0f b6 05 b4 32 20 00 	movzbl 0x2032b4(%rip),%eax        # 97997be <mprotect@plt+0x939901e>
 959650a:	0f b6 c0             	movzbl %al,%eax
 959650d:	89 ce                	mov    %ecx,%esi
 959650f:	89 c7                	mov    %eax,%edi
 9596511:	e8 00 ff ff ff       	callq  9596416 <mprotect@plt+0x9195c76>
 9596516:	c9                   	leaveq 
 9596517:	c3                   	retq   
 9596518:	55                   	push   %rbp
 9596519:	48 89 e5             	mov    %rsp,%rbp
 959651c:	48 83 ec 10          	sub    $0x10,%rsp
 9596520:	89 f1                	mov    %esi,%ecx
 9596522:	89 d0                	mov    %edx,%eax
 9596524:	40 88 7d fc          	mov    %dil,-0x4(%rbp)
 9596528:	88 4d f8             	mov    %cl,-0x8(%rbp)
 959652b:	88 45 f4             	mov    %al,-0xc(%rbp)
 959652e:	80 7d fc 51          	cmpb   $0x51,-0x4(%rbp)
 9596532:	75 6c                	jne    95965a0 <mprotect@plt+0x9195e00>
 9596534:	0f b6 55 fc          	movzbl -0x4(%rbp),%edx
 9596538:	89 d0                	mov    %edx,%eax
 959653a:	c1 e0 03             	shl    $0x3,%eax
 959653d:	01 d0                	add    %edx,%eax
 959653f:	8d 14 c5 00 00 00 00 	lea    0x0(,%rax,8),%edx
 9596546:	01 d0                	add    %edx,%eax
 9596548:	2a 45 f8             	sub    -0x8(%rbp),%al
 959654b:	3c 2a                	cmp    $0x2a,%al
 959654d:	75 51                	jne    95965a0 <mprotect@plt+0x9195e00>
 959654f:	0f b6 45 fc          	movzbl -0x4(%rbp),%eax
 9596553:	88 45 f3             	mov    %al,-0xd(%rbp)
 9596556:	ba 34 00 00 00       	mov    $0x34,%edx
 959655b:	0f b6 45 f3          	movzbl -0xd(%rbp),%eax
 959655f:	0f af c2             	imul   %edx,%eax
 9596562:	89 c2                	mov    %eax,%edx
 9596564:	0f b6 45 f8          	movzbl -0x8(%rbp),%eax
 9596568:	b9 4e 00 00 00       	mov    $0x4e,%ecx
 959656d:	0f af c1             	imul   %ecx,%eax
 9596570:	01 d0                	add    %edx,%eax
 9596572:	2a 45 f4             	sub    -0xc(%rbp),%al
 9596575:	3c 05                	cmp    $0x5,%al
 9596577:	75 27                	jne    95965a0 <mprotect@plt+0x9195e00>
 9596579:	0f b6 05 3d 32 20 00 	movzbl 0x20323d(%rip),%eax        # 97997bd <mprotect@plt+0x939901d>
 9596580:	0f b6 d0             	movzbl %al,%edx
 9596583:	0f b6 05 32 32 20 00 	movzbl 0x203232(%rip),%eax        # 97997bc <mprotect@plt+0x939901c>
 959658a:	0f b6 c8             	movzbl %al,%ecx
 959658d:	0f b6 05 27 32 20 00 	movzbl 0x203227(%rip),%eax        # 97997bb <mprotect@plt+0x939901b>
 9596594:	0f b6 c0             	movzbl %al,%eax
 9596597:	89 ce                	mov    %ecx,%esi
 9596599:	89 c7                	mov    %eax,%edi
 959659b:	e8 f7 fe ff ff       	callq  9596497 <mprotect@plt+0x9195cf7>
 95965a0:	c9                   	leaveq 
 95965a1:	c3                   	retq   
 95965a2:	55                   	push   %rbp
 95965a3:	48 89 e5             	mov    %rsp,%rbp
 95965a6:	53                   	push   %rbx
 95965a7:	48 83 ec 18          	sub    $0x18,%rsp
 95965ab:	89 f1                	mov    %esi,%ecx
 95965ad:	89 d0                	mov    %edx,%eax
 95965af:	40 88 7d ec          	mov    %dil,-0x14(%rbp)
 95965b3:	88 4d e8             	mov    %cl,-0x18(%rbp)
 95965b6:	88 45 e4             	mov    %al,-0x1c(%rbp)
 95965b9:	80 7d ec 3d          	cmpb   $0x3d,-0x14(%rbp)
 95965bd:	75 66                	jne    9596625 <mprotect@plt+0x9195e85>
 95965bf:	0f b6 55 ec          	movzbl -0x14(%rbp),%edx
 95965c3:	89 d0                	mov    %edx,%eax
 95965c5:	c1 e0 02             	shl    $0x2,%eax
 95965c8:	01 d0                	add    %edx,%eax
 95965ca:	c1 e0 03             	shl    $0x3,%eax
 95965cd:	2a 45 e8             	sub    -0x18(%rbp),%al
 95965d0:	3c 43                	cmp    $0x43,%al
 95965d2:	75 51                	jne    9596625 <mprotect@plt+0x9195e85>
 95965d4:	0f b6 45 ec          	movzbl -0x14(%rbp),%eax
 95965d8:	c1 e0 03             	shl    $0x3,%eax
 95965db:	8d 14 c5 00 00 00 00 	lea    0x0(,%rax,8),%edx
 95965e2:	28 c2                	sub    %al,%dl
 95965e4:	0f b6 45 e8          	movzbl -0x18(%rbp),%eax
 95965e8:	01 c0                	add    %eax,%eax
 95965ea:	89 c1                	mov    %eax,%ecx
 95965ec:	c1 e1 05             	shl    $0x5,%ecx
 95965ef:	89 cb                	mov    %ecx,%ebx
 95965f1:	28 c3                	sub    %al,%bl
 95965f3:	89 d8                	mov    %ebx,%eax
 95965f5:	01 d0                	add    %edx,%eax
 95965f7:	2a 45 e4             	sub    -0x1c(%rbp),%al
 95965fa:	3c 3c                	cmp    $0x3c,%al
 95965fc:	75 27                	jne    9596625 <mprotect@plt+0x9195e85>
 95965fe:	0f b6 05 b5 31 20 00 	movzbl 0x2031b5(%rip),%eax        # 97997ba <mprotect@plt+0x939901a>
 9596605:	0f b6 d0             	movzbl %al,%edx
 9596608:	0f b6 05 aa 31 20 00 	movzbl 0x2031aa(%rip),%eax        # 97997b9 <mprotect@plt+0x9399019>
 959660f:	0f b6 c8             	movzbl %al,%ecx
 9596612:	0f b6 05 9f 31 20 00 	movzbl 0x20319f(%rip),%eax        # 97997b8 <mprotect@plt+0x9399018>
 9596619:	0f b6 c0             	movzbl %al,%eax
 959661c:	89 ce                	mov    %ecx,%esi
 959661e:	89 c7                	mov    %eax,%edi
 9596620:	e8 f3 fe ff ff       	callq  9596518 <mprotect@plt+0x9195d78>
 9596625:	48 83 c4 18          	add    $0x18,%rsp
 9596629:	5b                   	pop    %rbx
 959662a:	5d                   	pop    %rbp
 959662b:	c3                   	retq   
 959662c:	55                   	push   %rbp
 959662d:	48 89 e5             	mov    %rsp,%rbp
 9596630:	48 83 ec 10          	sub    $0x10,%rsp
 9596634:	89 f1                	mov    %esi,%ecx
 9596636:	89 d0                	mov    %edx,%eax
 9596638:	40 88 7d fc          	mov    %dil,-0x4(%rbp)
 959663c:	88 4d f8             	mov    %cl,-0x8(%rbp)
 959663f:	88 45 f4             	mov    %al,-0xc(%rbp)
 9596642:	80 7d fc 32          	cmpb   $0x32,-0x4(%rbp)
 9596646:	75 63                	jne    95966ab <mprotect@plt+0x9195f0b>
 9596648:	0f b6 45 fc          	movzbl -0x4(%rbp),%eax
 959664c:	ba 3a 00 00 00       	mov    $0x3a,%edx
 9596651:	0f af c2             	imul   %edx,%eax
 9596654:	2a 45 f8             	sub    -0x8(%rbp),%al
 9596657:	3c 14                	cmp    $0x14,%al
 9596659:	75 50                	jne    95966ab <mprotect@plt+0x9195f0b>
 959665b:	0f b6 45 fc          	movzbl -0x4(%rbp),%eax
 959665f:	88 45 f3             	mov    %al,-0xd(%rbp)
 9596662:	ba 52 00 00 00       	mov    $0x52,%edx
 9596667:	0f b6 45 f3          	movzbl -0xd(%rbp),%eax
 959666b:	0f af c2             	imul   %edx,%eax
 959666e:	89 c1                	mov    %eax,%ecx
 9596670:	0f b6 55 f8          	movzbl -0x8(%rbp),%edx
 9596674:	89 d0                	mov    %edx,%eax
 9596676:	c1 e0 03             	shl    $0x3,%eax
 9596679:	28 d0                	sub    %dl,%al
 959667b:	01 c8                	add    %ecx,%eax
 959667d:	2a 45 f4             	sub    -0xc(%rbp),%al
 9596680:	3c 59                	cmp    $0x59,%al
 9596682:	75 27                	jne    95966ab <mprotect@plt+0x9195f0b>
 9596684:	0f b6 05 2c 31 20 00 	movzbl 0x20312c(%rip),%eax        # 97997b7 <mprotect@plt+0x9399017>
 959668b:	0f b6 d0             	movzbl %al,%edx
 959668e:	0f b6 05 21 31 20 00 	movzbl 0x203121(%rip),%eax        # 97997b6 <mprotect@plt+0x9399016>
 9596695:	0f b6 c8             	movzbl %al,%ecx
 9596698:	0f b6 05 16 31 20 00 	movzbl 0x203116(%rip),%eax        # 97997b5 <mprotect@plt+0x9399015>
 959669f:	0f b6 c0             	movzbl %al,%eax
 95966a2:	89 ce                	mov    %ecx,%esi
 95966a4:	89 c7                	mov    %eax,%edi
 95966a6:	e8 f7 fe ff ff       	callq  95965a2 <mprotect@plt+0x9195e02>
 95966ab:	c9                   	leaveq 
 95966ac:	c3                   	retq   
 95966ad:	55                   	push   %rbp
 95966ae:	48 89 e5             	mov    %rsp,%rbp
 95966b1:	48 83 ec 10          	sub    $0x10,%rsp
 95966b5:	89 f1                	mov    %esi,%ecx
 95966b7:	89 d0                	mov    %edx,%eax
 95966b9:	40 88 7d fc          	mov    %dil,-0x4(%rbp)
 95966bd:	88 4d f8             	mov    %cl,-0x8(%rbp)
 95966c0:	88 45 f4             	mov    %al,-0xc(%rbp)
 95966c3:	80 7d fc c5          	cmpb   $0xc5,-0x4(%rbp)
 95966c7:	75 64                	jne    959672d <mprotect@plt+0x9195f8d>
 95966c9:	0f b6 45 fc          	movzbl -0x4(%rbp),%eax
 95966cd:	ba 2d 00 00 00       	mov    $0x2d,%edx
 95966d2:	0f af c2             	imul   %edx,%eax
 95966d5:	2a 45 f8             	sub    -0x8(%rbp),%al
 95966d8:	3c 05                	cmp    $0x5,%al
 95966da:	75 51                	jne    959672d <mprotect@plt+0x9195f8d>
 95966dc:	0f b6 45 fc          	movzbl -0x4(%rbp),%eax
 95966e0:	88 45 f3             	mov    %al,-0xd(%rbp)
 95966e3:	ba 39 00 00 00       	mov    $0x39,%edx
 95966e8:	0f b6 45 f3          	movzbl -0xd(%rbp),%eax
 95966ec:	0f af c2             	imul   %edx,%eax
 95966ef:	89 c2                	mov    %eax,%edx
 95966f1:	0f b6 45 f8          	movzbl -0x8(%rbp),%eax
 95966f5:	b9 55 00 00 00       	mov    $0x55,%ecx
 95966fa:	0f af c1             	imul   %ecx,%eax
 95966fd:	01 d0                	add    %edx,%eax
 95966ff:	2a 45 f4             	sub    -0xc(%rbp),%al
 9596702:	3c 38                	cmp    $0x38,%al
 9596704:	75 27                	jne    959672d <mprotect@plt+0x9195f8d>
 9596706:	0f b6 05 a7 30 20 00 	movzbl 0x2030a7(%rip),%eax        # 97997b4 <mprotect@plt+0x9399014>
 959670d:	0f b6 d0             	movzbl %al,%edx
 9596710:	0f b6 05 9c 30 20 00 	movzbl 0x20309c(%rip),%eax        # 97997b3 <mprotect@plt+0x9399013>
 9596717:	0f b6 c8             	movzbl %al,%ecx
 959671a:	0f b6 05 91 30 20 00 	movzbl 0x203091(%rip),%eax        # 97997b2 <mprotect@plt+0x9399012>
 9596721:	0f b6 c0             	movzbl %al,%eax
 9596724:	89 ce                	mov    %ecx,%esi
 9596726:	89 c7                	mov    %eax,%edi
 9596728:	e8 ff fe ff ff       	callq  959662c <mprotect@plt+0x9195e8c>
 959672d:	c9                   	leaveq 
 959672e:	c3                   	retq   
 959672f:	55                   	push   %rbp
 9596730:	48 89 e5             	mov    %rsp,%rbp
 9596733:	48 83 ec 10          	sub    $0x10,%rsp
 9596737:	89 f1                	mov    %esi,%ecx
 9596739:	89 d0                	mov    %edx,%eax
 959673b:	40 88 7d fc          	mov    %dil,-0x4(%rbp)
 959673f:	88 4d f8             	mov    %cl,-0x8(%rbp)
 9596742:	88 45 f4             	mov    %al,-0xc(%rbp)
 9596745:	80 7d fc cc          	cmpb   $0xcc,-0x4(%rbp)
 9596749:	75 64                	jne    95967af <mprotect@plt+0x919600f>
 959674b:	0f b6 45 fc          	movzbl -0x4(%rbp),%eax
 959674f:	ba 4a 00 00 00       	mov    $0x4a,%edx
 9596754:	0f af c2             	imul   %edx,%eax
 9596757:	2a 45 f8             	sub    -0x8(%rbp),%al
 959675a:	3c 48                	cmp    $0x48,%al
 959675c:	75 51                	jne    95967af <mprotect@plt+0x919600f>
 959675e:	0f b6 45 fc          	movzbl -0x4(%rbp),%eax
 9596762:	88 45 f3             	mov    %al,-0xd(%rbp)
 9596765:	ba 36 00 00 00       	mov    $0x36,%edx
 959676a:	0f b6 45 f3          	movzbl -0xd(%rbp),%eax
 959676e:	0f af c2             	imul   %edx,%eax
 9596771:	89 c2                	mov    %eax,%edx
 9596773:	0f b6 45 f8          	movzbl -0x8(%rbp),%eax
 9596777:	b9 53 00 00 00       	mov    $0x53,%ecx
 959677c:	0f af c1             	imul   %ecx,%eax
 959677f:	01 d0                	add    %edx,%eax
 9596781:	2a 45 f4             	sub    -0xc(%rbp),%al
 9596784:	3c 25                	cmp    $0x25,%al
 9596786:	75 27                	jne    95967af <mprotect@plt+0x919600f>
 9596788:	0f b6 05 22 30 20 00 	movzbl 0x203022(%rip),%eax        # 97997b1 <mprotect@plt+0x9399011>
 959678f:	0f b6 d0             	movzbl %al,%edx
 9596792:	0f b6 05 17 30 20 00 	movzbl 0x203017(%rip),%eax        # 97997b0 <mprotect@plt+0x9399010>
 9596799:	0f b6 c8             	movzbl %al,%ecx
 959679c:	0f b6 05 0c 30 20 00 	movzbl 0x20300c(%rip),%eax        # 97997af <mprotect@plt+0x939900f>
 95967a3:	0f b6 c0             	movzbl %al,%eax
 95967a6:	89 ce                	mov    %ecx,%esi
 95967a8:	89 c7                	mov    %eax,%edi
 95967aa:	e8 fe fe ff ff       	callq  95966ad <mprotect@plt+0x9195f0d>
 95967af:	c9                   	leaveq 
 95967b0:	c3                   	retq   
 95967b1:	55                   	push   %rbp
 95967b2:	48 89 e5             	mov    %rsp,%rbp
 95967b5:	48 83 ec 10          	sub    $0x10,%rsp
 95967b9:	89 f1                	mov    %esi,%ecx
 95967bb:	89 d0                	mov    %edx,%eax
 95967bd:	40 88 7d fc          	mov    %dil,-0x4(%rbp)
 95967c1:	88 4d f8             	mov    %cl,-0x8(%rbp)
 95967c4:	88 45 f4             	mov    %al,-0xc(%rbp)
 95967c7:	80 7d fc 3f          	cmpb   $0x3f,-0x4(%rbp)
 95967cb:	75 66                	jne    9596833 <mprotect@plt+0x9196093>
 95967cd:	0f b6 55 fc          	movzbl -0x4(%rbp),%edx
 95967d1:	89 d0                	mov    %edx,%eax
 95967d3:	c1 e0 02             	shl    $0x2,%eax
 95967d6:	01 d0                	add    %edx,%eax
 95967d8:	c1 e0 03             	shl    $0x3,%eax
 95967db:	2a 45 f8             	sub    -0x8(%rbp),%al
 95967de:	3c 5b                	cmp    $0x5b,%al
 95967e0:	75 51                	jne    9596833 <mprotect@plt+0x9196093>
 95967e2:	0f b6 45 fc          	movzbl -0x4(%rbp),%eax
 95967e6:	88 45 f3             	mov    %al,-0xd(%rbp)
 95967e9:	ba 37 00 00 00       	mov    $0x37,%edx
 95967ee:	0f b6 45 f3          	movzbl -0xd(%rbp),%eax
 95967f2:	0f af c2             	imul   %edx,%eax
 95967f5:	89 c2                	mov    %eax,%edx
 95967f7:	0f b6 45 f8          	movzbl -0x8(%rbp),%eax
 95967fb:	b9 39 00 00 00       	mov    $0x39,%ecx
 9596800:	0f af c1             	imul   %ecx,%eax
 9596803:	01 d0                	add    %edx,%eax
 9596805:	2a 45 f4             	sub    -0xc(%rbp),%al
 9596808:	3c 5d                	cmp    $0x5d,%al
 959680a:	75 27                	jne    9596833 <mprotect@plt+0x9196093>
 959680c:	0f b6 05 9b 2f 20 00 	movzbl 0x202f9b(%rip),%eax        # 97997ae <mprotect@plt+0x939900e>
 9596813:	0f b6 d0             	movzbl %al,%edx
 9596816:	0f b6 05 90 2f 20 00 	movzbl 0x202f90(%rip),%eax        # 97997ad <mprotect@plt+0x939900d>
 959681d:	0f b6 c8             	movzbl %al,%ecx
 9596820:	0f b6 05 85 2f 20 00 	movzbl 0x202f85(%rip),%eax        # 97997ac <mprotect@plt+0x939900c>
 9596827:	0f b6 c0             	movzbl %al,%eax
 959682a:	89 ce                	mov    %ecx,%esi
 959682c:	89 c7                	mov    %eax,%edi
 959682e:	e8 fc fe ff ff       	callq  959672f <mprotect@plt+0x9195f8f>
 9596833:	c9                   	leaveq 
 9596834:	c3                   	retq   
 9596835:	55                   	push   %rbp
 9596836:	48 89 e5             	mov    %rsp,%rbp
 9596839:	48 83 ec 10          	sub    $0x10,%rsp
 959683d:	89 f1                	mov    %esi,%ecx
 959683f:	89 d0                	mov    %edx,%eax
 9596841:	40 88 7d fc          	mov    %dil,-0x4(%rbp)
 9596845:	88 4d f8             	mov    %cl,-0x8(%rbp)
 9596848:	88 45 f4             	mov    %al,-0xc(%rbp)
 959684b:	80 7d fc e0          	cmpb   $0xe0,-0x4(%rbp)
 959684f:	75 5e                	jne    95968af <mprotect@plt+0x919610f>
 9596851:	0f b6 45 fc          	movzbl -0x4(%rbp),%eax
 9596855:	ba 26 00 00 00       	mov    $0x26,%edx
 959685a:	0f af c2             	imul   %edx,%eax
 959685d:	2a 45 f8             	sub    -0x8(%rbp),%al
 9596860:	3c 0d                	cmp    $0xd,%al
 9596862:	75 4b                	jne    95968af <mprotect@plt+0x919610f>
 9596864:	0f b6 45 fc          	movzbl -0x4(%rbp),%eax
 9596868:	01 c0                	add    %eax,%eax
 959686a:	89 c2                	mov    %eax,%edx
 959686c:	c1 e2 04             	shl    $0x4,%edx
 959686f:	89 d1                	mov    %edx,%ecx
 9596871:	28 c1                	sub    %al,%cl
 9596873:	0f b6 45 f8          	movzbl -0x8(%rbp),%eax
 9596877:	ba 3b 00 00 00       	mov    $0x3b,%edx
 959687c:	0f af c2             	imul   %edx,%eax
 959687f:	01 c8                	add    %ecx,%eax
 9596881:	2a 45 f4             	sub    -0xc(%rbp),%al
 9596884:	3c 1b                	cmp    $0x1b,%al
 9596886:	75 27                	jne    95968af <mprotect@plt+0x919610f>
 9596888:	0f b6 05 1c 2f 20 00 	movzbl 0x202f1c(%rip),%eax        # 97997ab <mprotect@plt+0x939900b>
 959688f:	0f b6 d0             	movzbl %al,%edx
 9596892:	0f b6 05 11 2f 20 00 	movzbl 0x202f11(%rip),%eax        # 97997aa <mprotect@plt+0x939900a>
 9596899:	0f b6 c8             	movzbl %al,%ecx
 959689c:	0f b6 05 06 2f 20 00 	movzbl 0x202f06(%rip),%eax        # 97997a9 <mprotect@plt+0x9399009>
 95968a3:	0f b6 c0             	movzbl %al,%eax
 95968a6:	89 ce                	mov    %ecx,%esi
 95968a8:	89 c7                	mov    %eax,%edi
 95968aa:	e8 02 ff ff ff       	callq  95967b1 <mprotect@plt+0x9196011>
 95968af:	c9                   	leaveq 
 95968b0:	c3                   	retq   
 95968b1:	55                   	push   %rbp
 95968b2:	48 89 e5             	mov    %rsp,%rbp
 95968b5:	48 83 ec 10          	sub    $0x10,%rsp
 95968b9:	89 f1                	mov    %esi,%ecx
 95968bb:	89 d0                	mov    %edx,%eax
 95968bd:	40 88 7d fc          	mov    %dil,-0x4(%rbp)
 95968c1:	88 4d f8             	mov    %cl,-0x8(%rbp)
 95968c4:	88 45 f4             	mov    %al,-0xc(%rbp)
 95968c7:	80 7d fc ca          	cmpb   $0xca,-0x4(%rbp)
 95968cb:	75 64                	jne    9596931 <mprotect@plt+0x9196191>
 95968cd:	0f b6 45 fc          	movzbl -0x4(%rbp),%eax
 95968d1:	ba 53 00 00 00       	mov    $0x53,%edx
 95968d6:	0f af c2             	imul   %edx,%eax
 95968d9:	2a 45 f8             	sub    -0x8(%rbp),%al
 95968dc:	3c 1d                	cmp    $0x1d,%al
 95968de:	75 51                	jne    9596931 <mprotect@plt+0x9196191>
 95968e0:	0f b6 45 fc          	movzbl -0x4(%rbp),%eax
 95968e4:	88 45 f3             	mov    %al,-0xd(%rbp)
 95968e7:	ba 5d 00 00 00       	mov    $0x5d,%edx
 95968ec:	0f b6 45 f3          	movzbl -0xd(%rbp),%eax
 95968f0:	0f af c2             	imul   %edx,%eax
 95968f3:	89 c2                	mov    %eax,%edx
 95968f5:	0f b6 45 f8          	movzbl -0x8(%rbp),%eax
 95968f9:	b9 35 00 00 00       	mov    $0x35,%ecx
 95968fe:	0f af c1             	imul   %ecx,%eax
 9596901:	01 d0                	add    %edx,%eax
 9596903:	2a 45 f4             	sub    -0xc(%rbp),%al
 9596906:	3c 3b                	cmp    $0x3b,%al
 9596908:	75 27                	jne    9596931 <mprotect@plt+0x9196191>
 959690a:	0f b6 05 97 2e 20 00 	movzbl 0x202e97(%rip),%eax        # 97997a8 <mprotect@plt+0x9399008>
 9596911:	0f b6 d0             	movzbl %al,%edx
 9596914:	0f b6 05 8c 2e 20 00 	movzbl 0x202e8c(%rip),%eax        # 97997a7 <mprotect@plt+0x9399007>
 959691b:	0f b6 c8             	movzbl %al,%ecx
 959691e:	0f b6 05 81 2e 20 00 	movzbl 0x202e81(%rip),%eax        # 97997a6 <mprotect@plt+0x9399006>
 9596925:	0f b6 c0             	movzbl %al,%eax
 9596928:	89 ce                	mov    %ecx,%esi
 959692a:	89 c7                	mov    %eax,%edi
 959692c:	e8 04 ff ff ff       	callq  9596835 <mprotect@plt+0x9196095>
 9596931:	c9                   	leaveq 
 9596932:	c3                   	retq   
 9596933:	55                   	push   %rbp
 9596934:	48 89 e5             	mov    %rsp,%rbp
 9596937:	48 83 ec 10          	sub    $0x10,%rsp
 959693b:	89 f1                	mov    %esi,%ecx
 959693d:	89 d0                	mov    %edx,%eax
 959693f:	40 88 7d fc          	mov    %dil,-0x4(%rbp)
 9596943:	88 4d f8             	mov    %cl,-0x8(%rbp)
 9596946:	88 45 f4             	mov    %al,-0xc(%rbp)
 9596949:	80 7d fc 07          	cmpb   $0x7,-0x4(%rbp)
 959694d:	75 5c                	jne    95969ab <mprotect@plt+0x919620b>
 959694f:	0f b6 55 fc          	movzbl -0x4(%rbp),%edx
 9596953:	89 d0                	mov    %edx,%eax
 9596955:	c1 e0 02             	shl    $0x2,%eax
 9596958:	01 d0                	add    %edx,%eax
 959695a:	c1 e0 04             	shl    $0x4,%eax
 959695d:	2a 45 f8             	sub    -0x8(%rbp),%al
 9596960:	3c 48                	cmp    $0x48,%al
 9596962:	75 47                	jne    95969ab <mprotect@plt+0x919620b>
 9596964:	0f b6 55 fc          	movzbl -0x4(%rbp),%edx
 9596968:	89 d0                	mov    %edx,%eax
 959696a:	c1 e0 03             	shl    $0x3,%eax
 959696d:	8d 0c 10             	lea    (%rax,%rdx,1),%ecx
 9596970:	0f b6 55 f8          	movzbl -0x8(%rbp),%edx
 9596974:	89 d0                	mov    %edx,%eax
 9596976:	c1 e0 02             	shl    $0x2,%eax
 9596979:	01 d0                	add    %edx,%eax
 959697b:	01 c8                	add    %ecx,%eax
 959697d:	2a 45 f4             	sub    -0xc(%rbp),%al
 9596980:	3c 61                	cmp    $0x61,%al
 9596982:	75 27                	jne    95969ab <mprotect@plt+0x919620b>
 9596984:	0f b6 05 1a 2e 20 00 	movzbl 0x202e1a(%rip),%eax        # 97997a5 <mprotect@plt+0x9399005>
 959698b:	0f b6 d0             	movzbl %al,%edx
 959698e:	0f b6 05 0f 2e 20 00 	movzbl 0x202e0f(%rip),%eax        # 97997a4 <mprotect@plt+0x9399004>
 9596995:	0f b6 c8             	movzbl %al,%ecx
 9596998:	0f b6 05 04 2e 20 00 	movzbl 0x202e04(%rip),%eax        # 97997a3 <mprotect@plt+0x9399003>
 959699f:	0f b6 c0             	movzbl %al,%eax
 95969a2:	89 ce                	mov    %ecx,%esi
 95969a4:	89 c7                	mov    %eax,%edi
 95969a6:	e8 06 ff ff ff       	callq  95968b1 <mprotect@plt+0x9196111>
 95969ab:	c9                   	leaveq 
 95969ac:	c3                   	retq   
 95969ad:	55                   	push   %rbp
 95969ae:	48 89 e5             	mov    %rsp,%rbp
 95969b1:	48 89 7d d8          	mov    %rdi,-0x28(%rbp)
 95969b5:	48 89 75 d0          	mov    %rsi,-0x30(%rbp)
 95969b9:	48 89 55 c8          	mov    %rdx,-0x38(%rbp)
 95969bd:	48 89 4d c0          	mov    %rcx,-0x40(%rbp)
 95969c1:	4c 89 45 b8          	mov    %r8,-0x48(%rbp)
 95969c5:	4c 89 4d b0          	mov    %r9,-0x50(%rbp)
 95969c9:	b8 00 00 00 00       	mov    $0x0,%eax
 95969ce:	5d                   	pop    %rbp
 95969cf:	c3                   	retq   
 95969d0:	55                   	push   %rbp
 95969d1:	48 89 e5             	mov    %rsp,%rbp
 95969d4:	48 83 ec 50          	sub    $0x50,%rsp
 95969d8:	48 89 7d d8          	mov    %rdi,-0x28(%rbp)
 95969dc:	48 89 75 d0          	mov    %rsi,-0x30(%rbp)
 95969e0:	48 89 55 c8          	mov    %rdx,-0x38(%rbp)
 95969e4:	48 89 4d c0          	mov    %rcx,-0x40(%rbp)
 95969e8:	4c 89 45 b8          	mov    %r8,-0x48(%rbp)
 95969ec:	4c 89 4d b0          	mov    %r9,-0x50(%rbp)
 95969f0:	4c 8b 45 c0          	mov    -0x40(%rbp),%r8
 95969f4:	48 8b 7d b0          	mov    -0x50(%rbp),%rdi
 95969f8:	48 8b 4d b8          	mov    -0x48(%rbp),%rcx
 95969fc:	48 8b 55 d0          	mov    -0x30(%rbp),%rdx
 9596a00:	48 8b 75 c8          	mov    -0x38(%rbp),%rsi
 9596a04:	48 8b 45 d8          	mov    -0x28(%rbp),%rax
 9596a08:	4d 89 c1             	mov    %r8,%r9
 9596a0b:	49 89 f8             	mov    %rdi,%r8
 9596a0e:	48 89 c7             	mov    %rax,%rdi
 9596a11:	e8 97 ff ff ff       	callq  95969ad <mprotect@plt+0x919620d>
 9596a16:	89 45 fc             	mov    %eax,-0x4(%rbp)
 9596a19:	8b 45 fc             	mov    -0x4(%rbp),%eax
 9596a1c:	c9                   	leaveq 
 9596a1d:	c3                   	retq   
 9596a1e:	55                   	push   %rbp
 9596a1f:	48 89 e5             	mov    %rsp,%rbp
 9596a22:	48 83 ec 50          	sub    $0x50,%rsp
 9596a26:	89 7d cc             	mov    %edi,-0x34(%rbp)
 9596a29:	48 89 75 c0          	mov    %rsi,-0x40(%rbp)
 9596a2d:	83 7d cc 02          	cmpl   $0x2,-0x34(%rbp)
 9596a31:	74 14                	je     9596a47 <mprotect@plt+0x91962a7>
 9596a33:	bf c0 6e 59 09       	mov    $0x9596ec0,%edi
 9596a38:	e8 a3 9c e6 f6       	callq  4006e0 <puts@plt>
 9596a3d:	b8 00 00 00 00       	mov    $0x0,%eax
 9596a42:	e9 84 03 00 00       	jmpq   9596dcb <mprotect@plt+0x919662b>
 9596a47:	41 b9 06 00 00 00    	mov    $0x6,%r9d
 9596a4d:	41 b8 05 00 00 00    	mov    $0x5,%r8d
 9596a53:	b9 04 00 00 00       	mov    $0x4,%ecx
 9596a58:	ba 03 00 00 00       	mov    $0x3,%edx
 9596a5d:	be 02 00 00 00       	mov    $0x2,%esi
 9596a62:	bf 01 00 00 00       	mov    $0x1,%edi
 9596a67:	e8 64 ff ff ff       	callq  95969d0 <mprotect@plt+0x9196230>
 9596a6c:	89 c7                	mov    %eax,%edi
 9596a6e:	e8 cd 9c e6 f6       	callq  400740 <srand@plt>
 9596a73:	48 8b 45 c0          	mov    -0x40(%rbp),%rax
 9596a77:	48 83 c0 08          	add    $0x8,%rax
 9596a7b:	48 8b 00             	mov    (%rax),%rax
 9596a7e:	48 c7 45 b8 ff ff ff 	movq   $0xffffffffffffffff,-0x48(%rbp)
 9596a85:	ff 
 9596a86:	48 89 c2             	mov    %rax,%rdx
 9596a89:	b8 00 00 00 00       	mov    $0x0,%eax
 9596a8e:	48 8b 4d b8          	mov    -0x48(%rbp),%rcx
 9596a92:	48 89 d7             	mov    %rdx,%rdi
 9596a95:	f2 ae                	repnz scas %es:(%rdi),%al
 9596a97:	48 89 c8             	mov    %rcx,%rax
 9596a9a:	48 f7 d0             	not    %rax
 9596a9d:	48 83 e8 01          	sub    $0x1,%rax
 9596aa1:	48 d1 e8             	shr    %rax
 9596aa4:	89 05 c6 29 20 00    	mov    %eax,0x2029c6(%rip)        # 9799470 <mprotect@plt+0x9398cd0>
 9596aaa:	8b 05 c0 29 20 00    	mov    0x2029c0(%rip),%eax        # 9799470 <mprotect@plt+0x9398cd0>
 9596ab0:	3d e8 03 00 00       	cmp    $0x3e8,%eax
 9596ab5:	7e 14                	jle    9596acb <mprotect@plt+0x919632b>
 9596ab7:	bf e8 6e 59 09       	mov    $0x9596ee8,%edi
 9596abc:	e8 1f 9c e6 f6       	callq  4006e0 <puts@plt>
 9596ac1:	b8 00 00 00 00       	mov    $0x0,%eax
 9596ac6:	e9 00 03 00 00       	jmpq   9596dcb <mprotect@plt+0x919662b>
 9596acb:	c7 45 d8 00 00 00 00 	movl   $0x0,-0x28(%rbp)
 9596ad2:	c7 45 dc 00 00 00 00 	movl   $0x0,-0x24(%rbp)
 9596ad9:	eb 68                	jmp    9596b43 <mprotect@plt+0x91963a3>
 9596adb:	48 8b 45 c0          	mov    -0x40(%rbp),%rax
 9596adf:	48 83 c0 08          	add    $0x8,%rax
 9596ae3:	48 8b 10             	mov    (%rax),%rdx
 9596ae6:	8b 45 d8             	mov    -0x28(%rbp),%eax
 9596ae9:	48 98                	cltq   
 9596aeb:	48 01 d0             	add    %rdx,%rax
 9596aee:	0f b6 00             	movzbl (%rax),%eax
 9596af1:	88 45 f0             	mov    %al,-0x10(%rbp)
 9596af4:	48 8b 45 c0          	mov    -0x40(%rbp),%rax
 9596af8:	48 83 c0 08          	add    $0x8,%rax
 9596afc:	48 8b 00             	mov    (%rax),%rax
 9596aff:	8b 55 d8             	mov    -0x28(%rbp),%edx
 9596b02:	48 63 d2             	movslq %edx,%rdx
 9596b05:	48 83 c2 01          	add    $0x1,%rdx
 9596b09:	48 01 d0             	add    %rdx,%rax
 9596b0c:	0f b6 00             	movzbl (%rax),%eax
 9596b0f:	88 45 f1             	mov    %al,-0xf(%rbp)
 9596b12:	c6 45 f2 00          	movb   $0x0,-0xe(%rbp)
 9596b16:	8b 45 dc             	mov    -0x24(%rbp),%eax
 9596b19:	48 98                	cltq   
 9596b1b:	48 8d 90 a0 97 79 09 	lea    0x97997a0(%rax),%rdx
 9596b22:	83 45 dc 01          	addl   $0x1,-0x24(%rbp)
 9596b26:	b9 08 6f 59 09       	mov    $0x9596f08,%ecx
 9596b2b:	48 8d 45 f0          	lea    -0x10(%rbp),%rax
 9596b2f:	48 89 ce             	mov    %rcx,%rsi
 9596b32:	48 89 c7             	mov    %rax,%rdi
 9596b35:	b8 00 00 00 00       	mov    $0x0,%eax
 9596b3a:	e8 41 9c e6 f6       	callq  400780 <__isoc99_sscanf@plt>
 9596b3f:	83 45 d8 02          	addl   $0x2,-0x28(%rbp)
 9596b43:	8b 05 27 29 20 00    	mov    0x202927(%rip),%eax        # 9799470 <mprotect@plt+0x9398cd0>
 9596b49:	01 c0                	add    %eax,%eax
 9596b4b:	3b 45 d8             	cmp    -0x28(%rbp),%eax
 9596b4e:	7f 8b                	jg     9596adb <mprotect@plt+0x919633b>
 9596b50:	c7 45 ec 00 00 00 00 	movl   $0x0,-0x14(%rbp)
 9596b57:	e9 20 02 00 00       	jmpq   9596d7c <mprotect@plt+0x91965dc>
 9596b5c:	8b 45 e0             	mov    -0x20(%rbp),%eax
 9596b5f:	3c c7                	cmp    $0xc7,%al
 9596b61:	75 5a                	jne    9596bbd <mprotect@plt+0x919641d>
 9596b63:	8b 45 e0             	mov    -0x20(%rbp),%eax
 9596b66:	88 45 cb             	mov    %al,-0x35(%rbp)
 9596b69:	ba 1d 00 00 00       	mov    $0x1d,%edx
 9596b6e:	0f b6 45 cb          	movzbl -0x35(%rbp),%eax
 9596b72:	0f af c2             	imul   %edx,%eax
 9596b75:	89 c2                	mov    %eax,%edx
 9596b77:	8b 45 e4             	mov    -0x1c(%rbp),%eax
 9596b7a:	89 d1                	mov    %edx,%ecx
 9596b7c:	28 c1                	sub    %al,%cl
 9596b7e:	89 c8                	mov    %ecx,%eax
 9596b80:	3c 05                	cmp    $0x5,%al
 9596b82:	75 39                	jne    9596bbd <mprotect@plt+0x919641d>
 9596b84:	8b 45 e0             	mov    -0x20(%rbp),%eax
 9596b87:	89 c2                	mov    %eax,%edx
 9596b89:	89 d0                	mov    %edx,%eax
 9596b8b:	c1 e0 02             	shl    $0x2,%eax
 9596b8e:	01 d0                	add    %edx,%eax
 9596b90:	01 c0                	add    %eax,%eax
 9596b92:	89 c1                	mov    %eax,%ecx
 9596b94:	8b 45 e4             	mov    -0x1c(%rbp),%eax
 9596b97:	89 c2                	mov    %eax,%edx
 9596b99:	89 d0                	mov    %edx,%eax
 9596b9b:	c1 e0 03             	shl    $0x3,%eax
 9596b9e:	01 d0                	add    %edx,%eax
 9596ba0:	c1 e0 03             	shl    $0x3,%eax
 9596ba3:	8d 14 01             	lea    (%rcx,%rax,1),%edx
 9596ba6:	8b 45 e8             	mov    -0x18(%rbp),%eax
 9596ba9:	89 d1                	mov    %edx,%ecx
 9596bab:	28 c1                	sub    %al,%cl
 9596bad:	89 c8                	mov    %ecx,%eax
 9596baf:	3c 2f                	cmp    $0x2f,%al
 9596bb1:	75 0a                	jne    9596bbd <mprotect@plt+0x919641d>
 9596bb3:	8b 45 e0             	mov    -0x20(%rbp),%eax
 9596bb6:	89 45 e4             	mov    %eax,-0x1c(%rbp)
 9596bb9:	83 45 e0 01          	addl   $0x1,-0x20(%rbp)
 9596bbd:	8b 45 e0             	mov    -0x20(%rbp),%eax
 9596bc0:	3c cc                	cmp    $0xcc,%al
 9596bc2:	75 59                	jne    9596c1d <mprotect@plt+0x919647d>
 9596bc4:	8b 45 e0             	mov    -0x20(%rbp),%eax
 9596bc7:	88 45 cb             	mov    %al,-0x35(%rbp)
 9596bca:	ba 4a 00 00 00       	mov    $0x4a,%edx
 9596bcf:	0f b6 45 cb          	movzbl -0x35(%rbp),%eax
 9596bd3:	0f af c2             	imul   %edx,%eax
 9596bd6:	89 c2                	mov    %eax,%edx
 9596bd8:	8b 45 e4             	mov    -0x1c(%rbp),%eax
 9596bdb:	89 d1                	mov    %edx,%ecx
 9596bdd:	28 c1                	sub    %al,%cl
 9596bdf:	89 c8                	mov    %ecx,%eax
 9596be1:	3c 48                	cmp    $0x48,%al
 9596be3:	75 38                	jne    9596c1d <mprotect@plt+0x919647d>
 9596be5:	8b 45 e0             	mov    -0x20(%rbp),%eax
 9596be8:	88 45 cb             	mov    %al,-0x35(%rbp)
 9596beb:	ba 36 00 00 00       	mov    $0x36,%edx
 9596bf0:	0f b6 45 cb          	movzbl -0x35(%rbp),%eax
 9596bf4:	0f af c2             	imul   %edx,%eax
 9596bf7:	89 c2                	mov    %eax,%edx
 9596bf9:	8b 45 e4             	mov    -0x1c(%rbp),%eax
 9596bfc:	b9 53 00 00 00       	mov    $0x53,%ecx
 9596c01:	0f af c1             	imul   %ecx,%eax
 9596c04:	01 c2                	add    %eax,%edx
 9596c06:	8b 45 e8             	mov    -0x18(%rbp),%eax
 9596c09:	89 d1                	mov    %edx,%ecx
 9596c0b:	28 c1                	sub    %al,%cl
 9596c0d:	89 c8                	mov    %ecx,%eax
 9596c0f:	3c 25                	cmp    $0x25,%al
 9596c11:	75 0a                	jne    9596c1d <mprotect@plt+0x919647d>
 9596c13:	8b 45 e4             	mov    -0x1c(%rbp),%eax
 9596c16:	89 45 e8             	mov    %eax,-0x18(%rbp)
 9596c19:	83 45 e4 01          	addl   $0x1,-0x1c(%rbp)
 9596c1d:	8b 45 e0             	mov    -0x20(%rbp),%eax
 9596c20:	3c fb                	cmp    $0xfb,%al
 9596c22:	75 4e                	jne    9596c72 <mprotect@plt+0x91964d2>
 9596c24:	8b 45 e0             	mov    -0x20(%rbp),%eax
 9596c27:	88 45 cb             	mov    %al,-0x35(%rbp)
 9596c2a:	ba 23 00 00 00       	mov    $0x23,%edx
 9596c2f:	0f b6 45 cb          	movzbl -0x35(%rbp),%eax
 9596c33:	0f af c2             	imul   %edx,%eax
 9596c36:	89 c2                	mov    %eax,%edx
 9596c38:	8b 45 e4             	mov    -0x1c(%rbp),%eax
 9596c3b:	89 d1                	mov    %edx,%ecx
 9596c3d:	28 c1                	sub    %al,%cl
 9596c3f:	89 c8                	mov    %ecx,%eax
 9596c41:	3c 57                	cmp    $0x57,%al
 9596c43:	75 2d                	jne    9596c72 <mprotect@plt+0x91964d2>
 9596c45:	8b 45 e0             	mov    -0x20(%rbp),%eax
 9596c48:	89 c1                	mov    %eax,%ecx
 9596c4a:	c1 e1 04             	shl    $0x4,%ecx
 9596c4d:	8b 45 e4             	mov    -0x1c(%rbp),%eax
 9596c50:	ba 34 00 00 00       	mov    $0x34,%edx
 9596c55:	0f af c2             	imul   %edx,%eax
 9596c58:	8d 14 01             	lea    (%rcx,%rax,1),%edx
 9596c5b:	8b 45 e8             	mov    -0x18(%rbp),%eax
 9596c5e:	89 d1                	mov    %edx,%ecx
 9596c60:	28 c1                	sub    %al,%cl
 9596c62:	89 c8                	mov    %ecx,%eax
 9596c64:	3c 50                	cmp    $0x50,%al
 9596c66:	75 0a                	jne    9596c72 <mprotect@plt+0x91964d2>
 9596c68:	8b 45 e8             	mov    -0x18(%rbp),%eax
 9596c6b:	89 45 e0             	mov    %eax,-0x20(%rbp)
 9596c6e:	83 45 e8 01          	addl   $0x1,-0x18(%rbp)
 9596c72:	8b 45 ec             	mov    -0x14(%rbp),%eax
 9596c75:	83 e0 01             	and    $0x1,%eax
 9596c78:	85 c0                	test   %eax,%eax
 9596c7a:	75 1e                	jne    9596c9a <mprotect@plt+0x91964fa>
 9596c7c:	8b 45 ec             	mov    -0x14(%rbp),%eax
 9596c7f:	48 98                	cltq   
 9596c81:	0f b6 80 a0 97 79 09 	movzbl 0x97997a0(%rax),%eax
 9596c88:	89 c2                	mov    %eax,%edx
 9596c8a:	83 f2 40             	xor    $0x40,%edx
 9596c8d:	8b 45 ec             	mov    -0x14(%rbp),%eax
 9596c90:	48 98                	cltq   
 9596c92:	88 90 a0 97 79 09    	mov    %dl,0x97997a0(%rax)
 9596c98:	eb 1c                	jmp    9596cb6 <mprotect@plt+0x9196516>
 9596c9a:	8b 45 ec             	mov    -0x14(%rbp),%eax
 9596c9d:	48 98                	cltq   
 9596c9f:	0f b6 80 a0 97 79 09 	movzbl 0x97997a0(%rax),%eax
 9596ca6:	89 c2                	mov    %eax,%edx
 9596ca8:	83 f2 a3             	xor    $0xffffffa3,%edx
 9596cab:	8b 45 ec             	mov    -0x14(%rbp),%eax
 9596cae:	48 98                	cltq   
 9596cb0:	88 90 a0 97 79 09    	mov    %dl,0x97997a0(%rax)
 9596cb6:	8b 45 e0             	mov    -0x20(%rbp),%eax
 9596cb9:	3c e0                	cmp    $0xe0,%al
 9596cbb:	75 55                	jne    9596d12 <mprotect@plt+0x9196572>
 9596cbd:	8b 45 e0             	mov    -0x20(%rbp),%eax
 9596cc0:	88 45 cb             	mov    %al,-0x35(%rbp)
 9596cc3:	ba 26 00 00 00       	mov    $0x26,%edx
 9596cc8:	0f b6 45 cb          	movzbl -0x35(%rbp),%eax
 9596ccc:	0f af c2             	imul   %edx,%eax
 9596ccf:	89 c2                	mov    %eax,%edx
 9596cd1:	8b 45 e4             	mov    -0x1c(%rbp),%eax
 9596cd4:	89 d1                	mov    %edx,%ecx
 9596cd6:	28 c1                	sub    %al,%cl
 9596cd8:	89 c8                	mov    %ecx,%eax
 9596cda:	3c 0d                	cmp    $0xd,%al
 9596cdc:	75 34                	jne    9596d12 <mprotect@plt+0x9196572>
 9596cde:	8b 45 e0             	mov    -0x20(%rbp),%eax
 9596ce1:	01 c0                	add    %eax,%eax
 9596ce3:	89 c2                	mov    %eax,%edx
 9596ce5:	c1 e2 04             	shl    $0x4,%edx
 9596ce8:	89 d1                	mov    %edx,%ecx
 9596cea:	28 c1                	sub    %al,%cl
 9596cec:	8b 45 e4             	mov    -0x1c(%rbp),%eax
 9596cef:	ba 3b 00 00 00       	mov    $0x3b,%edx
 9596cf4:	0f af c2             	imul   %edx,%eax
 9596cf7:	8d 14 01             	lea    (%rcx,%rax,1),%edx
 9596cfa:	8b 45 e8             	mov    -0x18(%rbp),%eax
 9596cfd:	89 d1                	mov    %edx,%ecx
 9596cff:	28 c1                	sub    %al,%cl
 9596d01:	89 c8                	mov    %ecx,%eax
 9596d03:	3c 1b                	cmp    $0x1b,%al
 9596d05:	75 0b                	jne    9596d12 <mprotect@plt+0x9196572>
 9596d07:	8b 45 e8             	mov    -0x18(%rbp),%eax
 9596d0a:	8b 55 e4             	mov    -0x1c(%rbp),%edx
 9596d0d:	01 d0                	add    %edx,%eax
 9596d0f:	89 45 e0             	mov    %eax,-0x20(%rbp)
 9596d12:	8b 45 e0             	mov    -0x20(%rbp),%eax
 9596d15:	3c c7                	cmp    $0xc7,%al
 9596d17:	75 5f                	jne    9596d78 <mprotect@plt+0x91965d8>
 9596d19:	8b 45 e0             	mov    -0x20(%rbp),%eax
 9596d1c:	88 45 cb             	mov    %al,-0x35(%rbp)
 9596d1f:	ba 1d 00 00 00       	mov    $0x1d,%edx
 9596d24:	0f b6 45 cb          	movzbl -0x35(%rbp),%eax
 9596d28:	0f af c2             	imul   %edx,%eax
 9596d2b:	89 c2                	mov    %eax,%edx
 9596d2d:	8b 45 e4             	mov    -0x1c(%rbp),%eax
 9596d30:	89 d1                	mov    %edx,%ecx
 9596d32:	28 c1                	sub    %al,%cl
 9596d34:	89 c8                	mov    %ecx,%eax
 9596d36:	3c 05                	cmp    $0x5,%al
 9596d38:	75 3e                	jne    9596d78 <mprotect@plt+0x91965d8>
 9596d3a:	8b 45 e0             	mov    -0x20(%rbp),%eax
 9596d3d:	89 c2                	mov    %eax,%edx
 9596d3f:	89 d0                	mov    %edx,%eax
 9596d41:	c1 e0 02             	shl    $0x2,%eax
 9596d44:	01 d0                	add    %edx,%eax
 9596d46:	01 c0                	add    %eax,%eax
 9596d48:	89 c1                	mov    %eax,%ecx
 9596d4a:	8b 45 e4             	mov    -0x1c(%rbp),%eax
 9596d4d:	89 c2                	mov    %eax,%edx
 9596d4f:	89 d0                	mov    %edx,%eax
 9596d51:	c1 e0 03             	shl    $0x3,%eax
 9596d54:	01 d0                	add    %edx,%eax
 9596d56:	c1 e0 03             	shl    $0x3,%eax
 9596d59:	8d 14 01             	lea    (%rcx,%rax,1),%edx
 9596d5c:	8b 45 e8             	mov    -0x18(%rbp),%eax
 9596d5f:	89 d1                	mov    %edx,%ecx
 9596d61:	28 c1                	sub    %al,%cl
 9596d63:	89 c8                	mov    %ecx,%eax
 9596d65:	3c 2f                	cmp    $0x2f,%al
 9596d67:	75 0f                	jne    9596d78 <mprotect@plt+0x91965d8>
 9596d69:	8b 45 e8             	mov    -0x18(%rbp),%eax
 9596d6c:	8b 55 e0             	mov    -0x20(%rbp),%edx
 9596d6f:	89 d7                	mov    %edx,%edi
 9596d71:	29 c7                	sub    %eax,%edi
 9596d73:	89 f8                	mov    %edi,%eax
 9596d75:	89 45 e4             	mov    %eax,-0x1c(%rbp)
 9596d78:	83 45 ec 01          	addl   $0x1,-0x14(%rbp)
 9596d7c:	8b 05 ee 26 20 00    	mov    0x2026ee(%rip),%eax        # 9799470 <mprotect@plt+0x9398cd0>
 9596d82:	39 45 ec             	cmp    %eax,-0x14(%rbp)
 9596d85:	0f 8c d1 fd ff ff    	jl     9596b5c <mprotect@plt+0x91963bc>
 9596d8b:	bf 0d 6f 59 09       	mov    $0x9596f0d,%edi
 9596d90:	e8 4b 99 e6 f6       	callq  4006e0 <puts@plt>
 9596d95:	0f b6 05 06 2a 20 00 	movzbl 0x202a06(%rip),%eax        # 97997a2 <mprotect@plt+0x9399002>
 9596d9c:	0f b6 d0             	movzbl %al,%edx
 9596d9f:	0f b6 05 fb 29 20 00 	movzbl 0x2029fb(%rip),%eax        # 97997a1 <mprotect@plt+0x9399001>
 9596da6:	0f b6 c8             	movzbl %al,%ecx
 9596da9:	0f b6 05 f0 29 20 00 	movzbl 0x2029f0(%rip),%eax        # 97997a0 <mprotect@plt+0x9399000>
 9596db0:	0f b6 c0             	movzbl %al,%eax
 9596db3:	89 ce                	mov    %ecx,%esi
 9596db5:	89 c7                	mov    %eax,%edi
 9596db7:	e8 77 fb ff ff       	callq  9596933 <mprotect@plt+0x9196193>
 9596dbc:	bf 28 6f 59 09       	mov    $0x9596f28,%edi
 9596dc1:	e8 1a 99 e6 f6       	callq  4006e0 <puts@plt>
 9596dc6:	b8 00 00 00 00       	mov    $0x0,%eax
 9596dcb:	c9                   	leaveq 
 9596dcc:	c3                   	retq   
 9596dcd:	90                   	nop
 9596dce:	90                   	nop
 9596dcf:	90                   	nop
 9596dd0:	48 89 6c 24 d8       	mov    %rbp,-0x28(%rsp)
 9596dd5:	4c 89 64 24 e0       	mov    %r12,-0x20(%rsp)
 9596dda:	48 8d 2d 43 10 20 00 	lea    0x201043(%rip),%rbp        # 9797e24 <mprotect@plt+0x9397684>
 9596de1:	4c 8d 25 3c 10 20 00 	lea    0x20103c(%rip),%r12        # 9797e24 <mprotect@plt+0x9397684>
 9596de8:	4c 89 6c 24 e8       	mov    %r13,-0x18(%rsp)
 9596ded:	4c 89 74 24 f0       	mov    %r14,-0x10(%rsp)
 9596df2:	4c 89 7c 24 f8       	mov    %r15,-0x8(%rsp)
 9596df7:	48 89 5c 24 d0       	mov    %rbx,-0x30(%rsp)
 9596dfc:	48 83 ec 38          	sub    $0x38,%rsp
 9596e00:	4c 29 e5             	sub    %r12,%rbp
 9596e03:	41 89 fd             	mov    %edi,%r13d
 9596e06:	49 89 f6             	mov    %rsi,%r14
 9596e09:	48 c1 fd 03          	sar    $0x3,%rbp
 9596e0d:	49 89 d7             	mov    %rdx,%r15
 9596e10:	e8 9b 98 e6 f6       	callq  4006b0 <puts@plt-0x30>
 9596e15:	48 85 ed             	test   %rbp,%rbp
 9596e18:	74 1c                	je     9596e36 <mprotect@plt+0x9196696>
 9596e1a:	31 db                	xor    %ebx,%ebx
 9596e1c:	0f 1f 40 00          	nopl   0x0(%rax)
 9596e20:	4c 89 fa             	mov    %r15,%rdx
 9596e23:	4c 89 f6             	mov    %r14,%rsi
 9596e26:	44 89 ef             	mov    %r13d,%edi
 9596e29:	41 ff 14 dc          	callq  *(%r12,%rbx,8)
 9596e2d:	48 83 c3 01          	add    $0x1,%rbx
 9596e31:	48 39 eb             	cmp    %rbp,%rbx
 9596e34:	75 ea                	jne    9596e20 <mprotect@plt+0x9196680>
 9596e36:	48 8b 5c 24 08       	mov    0x8(%rsp),%rbx
 9596e3b:	48 8b 6c 24 10       	mov    0x10(%rsp),%rbp
 9596e40:	4c 8b 64 24 18       	mov    0x18(%rsp),%r12
 9596e45:	4c 8b 6c 24 20       	mov    0x20(%rsp),%r13
 9596e4a:	4c 8b 74 24 28       	mov    0x28(%rsp),%r14
 9596e4f:	4c 8b 7c 24 30       	mov    0x30(%rsp),%r15
 9596e54:	48 83 c4 38          	add    $0x38,%rsp
 9596e58:	c3                   	retq   
 9596e59:	0f 1f 80 00 00 00 00 	nopl   0x0(%rax)
 9596e60:	f3 c3                	repz retq 
 9596e62:	90                   	nop
 9596e63:	90                   	nop
 9596e64:	90                   	nop
 9596e65:	90                   	nop
 9596e66:	90                   	nop
 9596e67:	90                   	nop
 9596e68:	90                   	nop
 9596e69:	90                   	nop
 9596e6a:	90                   	nop
 9596e6b:	90                   	nop
 9596e6c:	90                   	nop
 9596e6d:	90                   	nop
 9596e6e:	90                   	nop
 9596e6f:	90                   	nop
 9596e70:	55                   	push   %rbp
 9596e71:	48 89 e5             	mov    %rsp,%rbp
 9596e74:	53                   	push   %rbx
 9596e75:	48 83 ec 08          	sub    $0x8,%rsp
 9596e79:	48 8b 05 a8 0f 20 00 	mov    0x200fa8(%rip),%rax        # 9797e28 <mprotect@plt+0x9397688>
 9596e80:	48 83 f8 ff          	cmp    $0xffffffffffffffff,%rax
 9596e84:	74 19                	je     9596e9f <mprotect@plt+0x91966ff>
 9596e86:	bb 28 7e 79 09       	mov    $0x9797e28,%ebx
 9596e8b:	0f 1f 44 00 00       	nopl   0x0(%rax,%rax,1)
 9596e90:	48 83 eb 08          	sub    $0x8,%rbx
 9596e94:	ff d0                	callq  *%rax
 9596e96:	48 8b 03             	mov    (%rbx),%rax
 9596e99:	48 83 f8 ff          	cmp    $0xffffffffffffffff,%rax
 9596e9d:	75 f1                	jne    9596e90 <mprotect@plt+0x91966f0>
 9596e9f:	48 83 c4 08          	add    $0x8,%rsp
 9596ea3:	5b                   	pop    %rbx
 9596ea4:	5d                   	pop    %rbp
 9596ea5:	c3                   	retq   
 9596ea6:	90                   	nop
 9596ea7:	90                   	nop

Disassembly of section .init:

00000000004006b0 <.init>:
  4006b0:	48 83 ec 08          	sub    $0x8,%rsp
  4006b4:	e8 73 59 19 09       	callq  959602c <mprotect@plt+0x919588c>
  4006b9:	e8 02 5a 19 09       	callq  95960c0 <mprotect@plt+0x9195920>
  4006be:	e8 ad 67 19 09       	callq  9596e70 <mprotect@plt+0x91966d0>
  4006c3:	48 83 c4 08          	add    $0x8,%rsp
  4006c7:	c3                   	retq   

Disassembly of section .plt:

00000000004006d0 <puts@plt-0x10>:
  4006d0:	ff 35 1a 79 39 09    	pushq  0x939791a(%rip)        # 9797ff0 <mprotect@plt+0x9397850>
  4006d6:	ff 25 1c 79 39 09    	jmpq   *0x939791c(%rip)        # 9797ff8 <mprotect@plt+0x9397858>
  4006dc:	0f 1f 40 00          	nopl   0x0(%rax)

00000000004006e0 <puts@plt>:
  4006e0:	ff 25 1a 79 39 09    	jmpq   *0x939791a(%rip)        # 9798000 <mprotect@plt+0x9397860>
  4006e6:	68 00 00 00 00       	pushq  $0x0
  4006eb:	e9 e0 ff ff ff       	jmpq   4006d0 <puts@plt-0x10>

00000000004006f0 <getuid@plt>:
  4006f0:	ff 25 12 79 39 09    	jmpq   *0x9397912(%rip)        # 9798008 <mprotect@plt+0x9397868>
  4006f6:	68 01 00 00 00       	pushq  $0x1
  4006fb:	e9 d0 ff ff ff       	jmpq   4006d0 <puts@plt-0x10>

0000000000400700 <mmap@plt>:
  400700:	ff 25 0a 79 39 09    	jmpq   *0x939790a(%rip)        # 9798010 <mprotect@plt+0x9397870>
  400706:	68 02 00 00 00       	pushq  $0x2
  40070b:	e9 c0 ff ff ff       	jmpq   4006d0 <puts@plt-0x10>

0000000000400710 <dup@plt>:
  400710:	ff 25 02 79 39 09    	jmpq   *0x9397902(%rip)        # 9798018 <mprotect@plt+0x9397878>
  400716:	68 03 00 00 00       	pushq  $0x3
  40071b:	e9 b0 ff ff ff       	jmpq   4006d0 <puts@plt-0x10>

0000000000400720 <geteuid@plt>:
  400720:	ff 25 fa 78 39 09    	jmpq   *0x93978fa(%rip)        # 9798020 <mprotect@plt+0x9397880>
  400726:	68 04 00 00 00       	pushq  $0x4
  40072b:	e9 a0 ff ff ff       	jmpq   4006d0 <puts@plt-0x10>

0000000000400730 <__libc_start_main@plt>:
  400730:	ff 25 f2 78 39 09    	jmpq   *0x93978f2(%rip)        # 9798028 <mprotect@plt+0x9397888>
  400736:	68 05 00 00 00       	pushq  $0x5
  40073b:	e9 90 ff ff ff       	jmpq   4006d0 <puts@plt-0x10>

0000000000400740 <srand@plt>:
  400740:	ff 25 ea 78 39 09    	jmpq   *0x93978ea(%rip)        # 9798030 <mprotect@plt+0x9397890>
  400746:	68 06 00 00 00       	pushq  $0x6
  40074b:	e9 80 ff ff ff       	jmpq   4006d0 <puts@plt-0x10>

0000000000400750 <memcpy@plt>:
  400750:	ff 25 e2 78 39 09    	jmpq   *0x93978e2(%rip)        # 9798038 <mprotect@plt+0x9397898>
  400756:	68 07 00 00 00       	pushq  $0x7
  40075b:	e9 70 ff ff ff       	jmpq   4006d0 <puts@plt-0x10>

0000000000400760 <time@plt>:
  400760:	ff 25 da 78 39 09    	jmpq   *0x93978da(%rip)        # 9798040 <mprotect@plt+0x93978a0>
  400766:	68 08 00 00 00       	pushq  $0x8
  40076b:	e9 60 ff ff ff       	jmpq   4006d0 <puts@plt-0x10>

0000000000400770 <nice@plt>:
  400770:	ff 25 d2 78 39 09    	jmpq   *0x93978d2(%rip)        # 9798048 <mprotect@plt+0x93978a8>
  400776:	68 09 00 00 00       	pushq  $0x9
  40077b:	e9 50 ff ff ff       	jmpq   4006d0 <puts@plt-0x10>

0000000000400780 <__isoc99_sscanf@plt>:
  400780:	ff 25 ca 78 39 09    	jmpq   *0x93978ca(%rip)        # 9798050 <mprotect@plt+0x93978b0>
  400786:	68 0a 00 00 00       	pushq  $0xa
  40078b:	e9 40 ff ff ff       	jmpq   4006d0 <puts@plt-0x10>

0000000000400790 <setreuid@plt>:
  400790:	ff 25 c2 78 39 09    	jmpq   *0x93978c2(%rip)        # 9798058 <mprotect@plt+0x93978b8>
  400796:	68 0b 00 00 00       	pushq  $0xb
  40079b:	e9 30 ff ff ff       	jmpq   4006d0 <puts@plt-0x10>

00000000004007a0 <mprotect@plt>:
  4007a0:	ff 25 ba 78 39 09    	jmpq   *0x93978ba(%rip)        # 9798060 <mprotect@plt+0x93978c0>
  4007a6:	68 0c 00 00 00       	pushq  $0xc
  4007ab:	e9 20 ff ff ff       	jmpq   4006d0 <puts@plt-0x10>

Disassembly of section .fini:

0000000009596ea8 <.fini>:
 9596ea8:	48 83 ec 08          	sub    $0x8,%rsp
 9596eac:	e8 9f f1 ff ff       	callq  9596050 <mprotect@plt+0x91958b0>
 9596eb1:	48 83 c4 08          	add    $0x8,%rsp
 9596eb5:	c3                   	retq   
